# SymbolsHelper-Confirmed: 1:5.74.0 amd64
libKF5DAV.so.5 libkf5dav5 #MINVER#
* Build-Depends-Package: libkf5dav-dev
 _ZN4KDAV10DavJobBase11qt_metacallEN11QMetaObject4CallEiPPv@Base 1:5.74.0
 _ZN4KDAV10DavJobBase11qt_metacastEPKc@Base 1:5.74.0
 _ZN4KDAV10DavJobBase16staticMetaObjectE@Base 1:5.74.0
 _ZN4KDAV10DavJobBaseC1EP7QObject@Base 1:5.74.0
 _ZN4KDAV10DavJobBaseC2EP7QObject@Base 1:5.74.0
 _ZN4KDAV10DavJobBaseD0Ev@Base 1:5.74.0
 _ZN4KDAV10DavJobBaseD1Ev@Base 1:5.74.0
 _ZN4KDAV10DavJobBaseD2Ev@Base 1:5.74.0
 _ZN4KDAV12ProtocolInfo11useMultigetENS_8ProtocolE@Base 1:5.74.0
 _ZN4KDAV12ProtocolInfo12protocolNameENS_8ProtocolE@Base 1:5.74.0
 _ZN4KDAV12ProtocolInfo14protocolByNameERK7QString@Base 1:5.74.0
 _ZN4KDAV12ProtocolInfo16contactsMimeTypeENS_8ProtocolE@Base 1:5.74.0
 _ZN4KDAV12ProtocolInfo16principalHomeSetENS_8ProtocolE@Base 1:5.74.0
 _ZN4KDAV12ProtocolInfo18principalHomeSetNSENS_8ProtocolE@Base 1:5.74.0
 _ZN4KDAV13DavCollection13setPrivilegesE6QFlagsINS_9PrivilegeEE@Base 1:5.74.0
 _ZN4KDAV13DavCollection14setDisplayNameERK7QString@Base 1:5.74.0
 _ZN4KDAV13DavCollection15setContentTypesE6QFlagsINS0_11ContentTypeEE@Base 1:5.74.0
 _ZN4KDAV13DavCollection6setUrlERKNS_6DavUrlE@Base 1:5.74.0
 _ZN4KDAV13DavCollection7setCTagERK7QString@Base 1:5.74.0
 _ZN4KDAV13DavCollection8setColorERK6QColor@Base 1:5.74.0
 _ZN4KDAV13DavCollectionC1EOS0_@Base 1:5.74.0
 _ZN4KDAV13DavCollectionC1ERKNS_6DavUrlERK7QString6QFlagsINS0_11ContentTypeEE@Base 1:5.74.0
 _ZN4KDAV13DavCollectionC1ERKS0_@Base 1:5.74.0
 _ZN4KDAV13DavCollectionC1Ev@Base 1:5.74.0
 _ZN4KDAV13DavCollectionC2EOS0_@Base 1:5.74.0
 _ZN4KDAV13DavCollectionC2ERKNS_6DavUrlERK7QString6QFlagsINS0_11ContentTypeEE@Base 1:5.74.0
 _ZN4KDAV13DavCollectionC2ERKS0_@Base 1:5.74.0
 _ZN4KDAV13DavCollectionC2Ev@Base 1:5.74.0
 _ZN4KDAV13DavCollectionD1Ev@Base 1:5.74.0
 _ZN4KDAV13DavCollectionD2Ev@Base 1:5.74.0
 _ZN4KDAV13DavCollectionaSEOS0_@Base 1:5.74.0
 _ZN4KDAV13DavCollectionaSERKS0_@Base 1:5.74.0
 _ZN4KDAV15DavItemFetchJob11qt_metacallEN11QMetaObject4CallEiPPv@Base 1:5.74.0
 _ZN4KDAV15DavItemFetchJob11qt_metacastEPKc@Base 1:5.74.0
 _ZN4KDAV15DavItemFetchJob16staticMetaObjectE@Base 1:5.74.0
 _ZN4KDAV15DavItemFetchJob5startEv@Base 1:5.74.0
 _ZN4KDAV15DavItemFetchJobC1ERKNS_7DavItemEP7QObject@Base 1:5.74.0
 _ZN4KDAV15DavItemFetchJobC2ERKNS_7DavItemEP7QObject@Base 1:5.74.0
 _ZN4KDAV15DavItemsListJob11qt_metacallEN11QMetaObject4CallEiPPv@Base 1:5.74.0
 _ZN4KDAV15DavItemsListJob11qt_metacastEPKc@Base 1:5.74.0
 _ZN4KDAV15DavItemsListJob12setTimeRangeERK7QStringS3_@Base 1:5.74.0
 _ZN4KDAV15DavItemsListJob16staticMetaObjectE@Base 1:5.74.0
 _ZN4KDAV15DavItemsListJob19setContentMimeTypesERK11QStringList@Base 1:5.74.0
 _ZN4KDAV15DavItemsListJob5startEv@Base 1:5.74.0
 _ZN4KDAV15DavItemsListJobC1ERKNS_6DavUrlERKSt10shared_ptrINS_9EtagCacheEEP7QObject@Base 1:5.74.0
 _ZN4KDAV15DavItemsListJobC2ERKNS_6DavUrlERKSt10shared_ptrINS_9EtagCacheEEP7QObject@Base 1:5.74.0
 _ZN4KDAV15DavItemsListJobD0Ev@Base 1:5.74.0
 _ZN4KDAV15DavItemsListJobD1Ev@Base 1:5.74.0
 _ZN4KDAV15DavItemsListJobD2Ev@Base 1:5.74.0
 _ZN4KDAV16DavItemCreateJob11qt_metacallEN11QMetaObject4CallEiPPv@Base 1:5.74.0
 _ZN4KDAV16DavItemCreateJob11qt_metacastEPKc@Base 1:5.74.0
 _ZN4KDAV16DavItemCreateJob16staticMetaObjectE@Base 1:5.74.0
 _ZN4KDAV16DavItemCreateJob5startEv@Base 1:5.74.0
 _ZN4KDAV16DavItemCreateJobC1ERKNS_7DavItemEP7QObject@Base 1:5.74.0
 _ZN4KDAV16DavItemCreateJobC2ERKNS_7DavItemEP7QObject@Base 1:5.74.0
 _ZN4KDAV16DavItemDeleteJob11qt_metacallEN11QMetaObject4CallEiPPv@Base 1:5.74.0
 _ZN4KDAV16DavItemDeleteJob11qt_metacastEPKc@Base 1:5.74.0
 _ZN4KDAV16DavItemDeleteJob16staticMetaObjectE@Base 1:5.74.0
 _ZN4KDAV16DavItemDeleteJob5startEv@Base 1:5.74.0
 _ZN4KDAV16DavItemDeleteJobC1ERKNS_7DavItemEP7QObject@Base 1:5.74.0
 _ZN4KDAV16DavItemDeleteJobC2ERKNS_7DavItemEP7QObject@Base 1:5.74.0
 _ZN4KDAV16DavItemModifyJob11qt_metacallEN11QMetaObject4CallEiPPv@Base 1:5.74.0
 _ZN4KDAV16DavItemModifyJob11qt_metacastEPKc@Base 1:5.74.0
 _ZN4KDAV16DavItemModifyJob16staticMetaObjectE@Base 1:5.74.0
 _ZN4KDAV16DavItemModifyJob5startEv@Base 1:5.74.0
 _ZN4KDAV16DavItemModifyJobC1ERKNS_7DavItemEP7QObject@Base 1:5.74.0
 _ZN4KDAV16DavItemModifyJobC2ERKNS_7DavItemEP7QObject@Base 1:5.74.0
 _ZN4KDAV16DavItemsFetchJob11qt_metacallEN11QMetaObject4CallEiPPv@Base 1:5.74.0
 _ZN4KDAV16DavItemsFetchJob11qt_metacastEPKc@Base 1:5.74.0
 _ZN4KDAV16DavItemsFetchJob16staticMetaObjectE@Base 1:5.74.0
 _ZN4KDAV16DavItemsFetchJob5startEv@Base 1:5.74.0
 _ZN4KDAV16DavItemsFetchJobC1ERKNS_6DavUrlERK11QStringListP7QObject@Base 1:5.74.0
 _ZN4KDAV16DavItemsFetchJobC2ERKNS_6DavUrlERK11QStringListP7QObject@Base 1:5.74.0
 _ZN4KDAV21DavPrincipalSearchJob11qt_metacallEN11QMetaObject4CallEiPPv@Base 1:5.74.0
 _ZN4KDAV21DavPrincipalSearchJob11qt_metacastEPKc@Base 1:5.74.0
 _ZN4KDAV21DavPrincipalSearchJob13fetchPropertyERK7QStringS3_@Base 1:5.74.0
 _ZN4KDAV21DavPrincipalSearchJob16staticMetaObjectE@Base 1:5.74.0
 _ZN4KDAV21DavPrincipalSearchJob5startEv@Base 1:5.74.0
 _ZN4KDAV21DavPrincipalSearchJobC1ERKNS_6DavUrlENS0_10FilterTypeERK7QStringP7QObject@Base 1:5.74.0
 _ZN4KDAV21DavPrincipalSearchJobC2ERKNS_6DavUrlENS0_10FilterTypeERK7QStringP7QObject@Base 1:5.74.0
 _ZN4KDAV22DavCollectionDeleteJob11qt_metacallEN11QMetaObject4CallEiPPv@Base 1:5.74.0
 _ZN4KDAV22DavCollectionDeleteJob11qt_metacastEPKc@Base 1:5.74.0
 _ZN4KDAV22DavCollectionDeleteJob16staticMetaObjectE@Base 1:5.74.0
 _ZN4KDAV22DavCollectionDeleteJob5startEv@Base 1:5.74.0
 _ZN4KDAV22DavCollectionDeleteJobC1ERKNS_6DavUrlEP7QObject@Base 1:5.74.0
 _ZN4KDAV22DavCollectionDeleteJobC2ERKNS_6DavUrlEP7QObject@Base 1:5.74.0
 _ZN4KDAV22DavCollectionModifyJob11qt_metacallEN11QMetaObject4CallEiPPv@Base 1:5.74.0
 _ZN4KDAV22DavCollectionModifyJob11qt_metacastEPKc@Base 1:5.74.0
 _ZN4KDAV22DavCollectionModifyJob11setPropertyERK7QStringS3_S3_@Base 1:5.74.0
 _ZN4KDAV22DavCollectionModifyJob14removePropertyERK7QStringS3_@Base 1:5.74.0
 _ZN4KDAV22DavCollectionModifyJob16staticMetaObjectE@Base 1:5.74.0
 _ZN4KDAV22DavCollectionModifyJob5startEv@Base 1:5.74.0
 _ZN4KDAV22DavCollectionModifyJobC1ERKNS_6DavUrlEP7QObject@Base 1:5.74.0
 _ZN4KDAV22DavCollectionModifyJobC2ERKNS_6DavUrlEP7QObject@Base 1:5.74.0
 _ZN4KDAV22DavCollectionsFetchJob11qt_metacallEN11QMetaObject4CallEiPPv@Base 1:5.74.0
 _ZN4KDAV22DavCollectionsFetchJob11qt_metacastEPKc@Base 1:5.74.0
 _ZN4KDAV22DavCollectionsFetchJob16staticMetaObjectE@Base 1:5.74.0
 _ZN4KDAV22DavCollectionsFetchJob20collectionDiscoveredENS_8ProtocolERK7QStringS4_@Base 1:5.74.0
 _ZN4KDAV22DavCollectionsFetchJob5startEv@Base 1:5.74.0
 _ZN4KDAV22DavCollectionsFetchJobC1ERKNS_6DavUrlEP7QObject@Base 1:5.74.0
 _ZN4KDAV22DavCollectionsFetchJobC2ERKNS_6DavUrlEP7QObject@Base 1:5.74.0
 _ZN4KDAV27DavCollectionsMultiFetchJob10slotResultEP4KJob@Base 1:5.74.0
 _ZN4KDAV27DavCollectionsMultiFetchJob11qt_metacallEN11QMetaObject4CallEiPPv@Base 1:5.74.0
 _ZN4KDAV27DavCollectionsMultiFetchJob11qt_metacastEPKc@Base 1:5.74.0
 _ZN4KDAV27DavCollectionsMultiFetchJob16staticMetaObjectE@Base 1:5.74.0
 _ZN4KDAV27DavCollectionsMultiFetchJob20collectionDiscoveredENS_8ProtocolERK7QStringS4_@Base 1:5.74.0
 _ZN4KDAV27DavCollectionsMultiFetchJob5startEv@Base 1:5.74.0
 _ZN4KDAV27DavCollectionsMultiFetchJobC1ERK7QVectorINS_6DavUrlEEP7QObject@Base 1:5.74.0
 _ZN4KDAV27DavCollectionsMultiFetchJobC2ERK7QVectorINS_6DavUrlEEP7QObject@Base 1:5.74.0
 _ZN4KDAV27DavCollectionsMultiFetchJobD0Ev@Base 1:5.74.0
 _ZN4KDAV27DavCollectionsMultiFetchJobD1Ev@Base 1:5.74.0
 _ZN4KDAV27DavCollectionsMultiFetchJobD2Ev@Base 1:5.74.0
 _ZN4KDAV28DavPrincipalHomeSetsFetchJob11qt_metacallEN11QMetaObject4CallEiPPv@Base 1:5.74.0
 _ZN4KDAV28DavPrincipalHomeSetsFetchJob11qt_metacastEPKc@Base 1:5.74.0
 _ZN4KDAV28DavPrincipalHomeSetsFetchJob16staticMetaObjectE@Base 1:5.74.0
 _ZN4KDAV28DavPrincipalHomeSetsFetchJob5startEv@Base 1:5.74.0
 _ZN4KDAV28DavPrincipalHomeSetsFetchJobC1ERKNS_6DavUrlEP7QObject@Base 1:5.74.0
 _ZN4KDAV28DavPrincipalHomeSetsFetchJobC2ERKNS_6DavUrlEP7QObject@Base 1:5.74.0
 _ZN4KDAV5ErrorC1ENS_11ErrorNumberEiRK7QStringi@Base 1:5.74.0
 _ZN4KDAV5ErrorC1EOS0_@Base 1:5.74.0
 _ZN4KDAV5ErrorC1ERKS0_@Base 1:5.74.0
 _ZN4KDAV5ErrorC1Ev@Base 1:5.74.0
 _ZN4KDAV5ErrorC2ENS_11ErrorNumberEiRK7QStringi@Base 1:5.74.0
 _ZN4KDAV5ErrorC2EOS0_@Base 1:5.74.0
 _ZN4KDAV5ErrorC2ERKS0_@Base 1:5.74.0
 _ZN4KDAV5ErrorC2Ev@Base 1:5.74.0
 _ZN4KDAV5ErrorD1Ev@Base 1:5.74.0
 _ZN4KDAV5ErrorD2Ev@Base 1:5.74.0
 _ZN4KDAV5ErroraSEOS0_@Base 1:5.74.0
 _ZN4KDAV5ErroraSERKS0_@Base 1:5.74.0
 _ZN4KDAV6DavUrl11setProtocolENS_8ProtocolE@Base 1:5.74.0
 _ZN4KDAV6DavUrl6setUrlERK4QUrl@Base 1:5.74.0
 _ZN4KDAV6DavUrlC1EOS0_@Base 1:5.74.0
 _ZN4KDAV6DavUrlC1ERK4QUrlNS_8ProtocolE@Base 1:5.74.0
 _ZN4KDAV6DavUrlC1ERKS0_@Base 1:5.74.0
 _ZN4KDAV6DavUrlC1Ev@Base 1:5.74.0
 _ZN4KDAV6DavUrlC2EOS0_@Base 1:5.74.0
 _ZN4KDAV6DavUrlC2ERK4QUrlNS_8ProtocolE@Base 1:5.74.0
 _ZN4KDAV6DavUrlC2ERKS0_@Base 1:5.74.0
 _ZN4KDAV6DavUrlC2Ev@Base 1:5.74.0
 _ZN4KDAV6DavUrlD1Ev@Base 1:5.74.0
 _ZN4KDAV6DavUrlD2Ev@Base 1:5.74.0
 _ZN4KDAV6DavUrlaSEOS0_@Base 1:5.74.0
 _ZN4KDAV6DavUrlaSERKS0_@Base 1:5.74.0
 _ZN4KDAV7DavItem14setContentTypeERK7QString@Base 1:5.74.0
 _ZN4KDAV7DavItem6setUrlERKNS_6DavUrlE@Base 1:5.74.0
 _ZN4KDAV7DavItem7setDataERK10QByteArray@Base 1:5.74.0
 _ZN4KDAV7DavItem7setEtagERK7QString@Base 1:5.74.0
 _ZN4KDAV7DavItemC1EOS0_@Base 1:5.74.0
 _ZN4KDAV7DavItemC1ERKNS_6DavUrlERK7QStringRK10QByteArrayS6_@Base 1:5.74.0
 _ZN4KDAV7DavItemC1ERKS0_@Base 1:5.74.0
 _ZN4KDAV7DavItemC1Ev@Base 1:5.74.0
 _ZN4KDAV7DavItemC2EOS0_@Base 1:5.74.0
 _ZN4KDAV7DavItemC2ERKNS_6DavUrlERK7QStringRK10QByteArrayS6_@Base 1:5.74.0
 _ZN4KDAV7DavItemC2ERKS0_@Base 1:5.74.0
 _ZN4KDAV7DavItemC2Ev@Base 1:5.74.0
 _ZN4KDAV7DavItemD1Ev@Base 1:5.74.0
 _ZN4KDAV7DavItemD2Ev@Base 1:5.74.0
 _ZN4KDAV7DavItemaSEOS0_@Base 1:5.74.0
 _ZN4KDAV7DavItemaSERKS0_@Base 1:5.74.0
 _ZN4KDAV9EtagCache10removeEtagERK7QString@Base 1:5.74.0
 _ZN4KDAV9EtagCache11qt_metacallEN11QMetaObject4CallEiPPv@Base 1:5.74.0
 _ZN4KDAV9EtagCache11qt_metacastEPKc@Base 1:5.74.0
 _ZN4KDAV9EtagCache13markAsChangedERK7QString@Base 1:5.74.0
 _ZN4KDAV9EtagCache15setEtagInternalERK7QStringS3_@Base 1:5.74.0
 _ZN4KDAV9EtagCache16staticMetaObjectE@Base 1:5.74.0
 _ZN4KDAV9EtagCache7setEtagERK7QStringS3_@Base 1:5.74.0
 _ZN4KDAV9EtagCacheC1EP7QObject@Base 1:5.74.0
 _ZN4KDAV9EtagCacheC2EP7QObject@Base 1:5.74.0
 _ZN4KDAV9EtagCacheD0Ev@Base 1:5.74.0
 _ZN4KDAV9EtagCacheD1Ev@Base 1:5.74.0
 _ZN4KDAV9EtagCacheD2Ev@Base 1:5.74.0
 _ZN4KDAVlsER11QDataStreamRKNS_6DavUrlE@Base 1:5.74.0
 _ZN4KDAVlsER11QDataStreamRKNS_7DavItemE@Base 1:5.74.0
 _ZN4KDAVrsER11QDataStreamRNS_6DavUrlE@Base 1:5.74.0
 _ZN4KDAVrsER11QDataStreamRNS_7DavItemE@Base 1:5.74.0
 _ZNK4KDAV10DavJobBase10metaObjectEv@Base 1:5.74.0
 _ZNK4KDAV10DavJobBase11hasConflictEv@Base 1:5.74.0
 _ZNK4KDAV10DavJobBase13canRetryLaterEv@Base 1:5.74.0
 _ZNK4KDAV10DavJobBase18latestResponseCodeEv@Base 1:5.74.0
 _ZNK4KDAV10DavJobBase8davErrorEv@Base 1:5.74.0
 _ZNK4KDAV13DavCollection10privilegesEv@Base 1:5.74.0
 _ZNK4KDAV13DavCollection11displayNameEv@Base 1:5.74.0
 _ZNK4KDAV13DavCollection12contentTypesEv@Base 1:5.74.0
 _ZNK4KDAV13DavCollection3urlEv@Base 1:5.74.0
 _ZNK4KDAV13DavCollection4CTagEv@Base 1:5.74.0
 _ZNK4KDAV13DavCollection5colorEv@Base 1:5.74.0
 _ZNK4KDAV15DavItemFetchJob10metaObjectEv@Base 1:5.74.0
 _ZNK4KDAV15DavItemFetchJob4itemEv@Base 1:5.74.0
 _ZNK4KDAV15DavItemsListJob10metaObjectEv@Base 1:5.74.0
 _ZNK4KDAV15DavItemsListJob12changedItemsEv@Base 1:5.74.0
 _ZNK4KDAV15DavItemsListJob12deletedItemsEv@Base 1:5.74.0
 _ZNK4KDAV15DavItemsListJob5itemsEv@Base 1:5.74.0
 _ZNK4KDAV16DavItemCreateJob10metaObjectEv@Base 1:5.74.0
 _ZNK4KDAV16DavItemCreateJob4itemEv@Base 1:5.74.0
 _ZNK4KDAV16DavItemCreateJob7itemUrlEv@Base 1:5.74.0
 _ZNK4KDAV16DavItemDeleteJob10metaObjectEv@Base 1:5.74.0
 _ZNK4KDAV16DavItemDeleteJob17freshResponseCodeEv@Base 1:5.74.0
 _ZNK4KDAV16DavItemDeleteJob9freshItemEv@Base 1:5.74.0
 _ZNK4KDAV16DavItemModifyJob10metaObjectEv@Base 1:5.74.0
 _ZNK4KDAV16DavItemModifyJob17freshResponseCodeEv@Base 1:5.74.0
 _ZNK4KDAV16DavItemModifyJob4itemEv@Base 1:5.74.0
 _ZNK4KDAV16DavItemModifyJob7itemUrlEv@Base 1:5.74.0
 _ZNK4KDAV16DavItemModifyJob9freshItemEv@Base 1:5.74.0
 _ZNK4KDAV16DavItemsFetchJob10metaObjectEv@Base 1:5.74.0
 _ZNK4KDAV16DavItemsFetchJob4itemERK7QString@Base 1:5.74.0
 _ZNK4KDAV16DavItemsFetchJob5itemsEv@Base 1:5.74.0
 _ZNK4KDAV21DavPrincipalSearchJob10metaObjectEv@Base 1:5.74.0
 _ZNK4KDAV21DavPrincipalSearchJob6davUrlEv@Base 1:5.74.0
 _ZNK4KDAV21DavPrincipalSearchJob7resultsEv@Base 1:5.74.0
 _ZNK4KDAV22DavCollectionDeleteJob10metaObjectEv@Base 1:5.74.0
 _ZNK4KDAV22DavCollectionModifyJob10metaObjectEv@Base 1:5.74.0
 _ZNK4KDAV22DavCollectionsFetchJob10metaObjectEv@Base 1:5.74.0
 _ZNK4KDAV22DavCollectionsFetchJob11collectionsEv@Base 1:5.74.0
 _ZNK4KDAV22DavCollectionsFetchJob6davUrlEv@Base 1:5.74.0
 _ZNK4KDAV27DavCollectionsMultiFetchJob10metaObjectEv@Base 1:5.74.0
 _ZNK4KDAV27DavCollectionsMultiFetchJob11collectionsEv@Base 1:5.74.0
 _ZNK4KDAV28DavPrincipalHomeSetsFetchJob10metaObjectEv@Base 1:5.74.0
 _ZNK4KDAV28DavPrincipalHomeSetsFetchJob8homeSetsEv@Base 1:5.74.0
 _ZNK4KDAV5Error11errorNumberEv@Base 1:5.74.0
 _ZNK4KDAV5Error12jobErrorCodeEv@Base 1:5.74.0
 _ZNK4KDAV5Error12responseCodeEv@Base 1:5.74.0
 _ZNK4KDAV5Error17internalErrorTextEv@Base 1:5.74.0
 _ZNK4KDAV5Error18translatedJobErrorEv@Base 1:5.74.0
 _ZNK4KDAV5Error9errorTextEv@Base 1:5.74.0
 _ZNK4KDAV6DavUrl15toDisplayStringEv@Base 1:5.74.0
 _ZNK4KDAV6DavUrl3urlEv@Base 1:5.74.0
 _ZNK4KDAV6DavUrl8protocolEv@Base 1:5.74.0
 _ZNK4KDAV7DavItem11contentTypeEv@Base 1:5.74.0
 _ZNK4KDAV7DavItem3urlEv@Base 1:5.74.0
 _ZNK4KDAV7DavItem4dataEv@Base 1:5.74.0
 _ZNK4KDAV7DavItem4etagEv@Base 1:5.74.0
 _ZNK4KDAV9EtagCache10metaObjectEv@Base 1:5.74.0
 _ZNK4KDAV9EtagCache11etagChangedERK7QStringS3_@Base 1:5.74.0
 _ZNK4KDAV9EtagCache11isOutOfDateERK7QString@Base 1:5.74.0
 _ZNK4KDAV9EtagCache16changedRemoteIdsEv@Base 1:5.74.0
 _ZNK4KDAV9EtagCache4urlsEv@Base 1:5.74.0
 _ZNK4KDAV9EtagCache8containsERK7QString@Base 1:5.74.0
 _ZNSt8_Rb_treeI7QStringS0_St9_IdentityIS0_ESt4lessIS0_ESaIS0_EE16_M_insert_uniqueIRKS0_EESt4pairISt17_Rb_tree_iteratorIS0_EbEOT_@Base 1:5.90.0
 _ZTIN4KDAV10DavJobBaseE@Base 1:5.74.0
 _ZTIN4KDAV15DavItemFetchJobE@Base 1:5.74.0
 _ZTIN4KDAV15DavItemsListJobE@Base 1:5.74.0
 _ZTIN4KDAV16DavItemCreateJobE@Base 1:5.74.0
 _ZTIN4KDAV16DavItemDeleteJobE@Base 1:5.74.0
 _ZTIN4KDAV16DavItemModifyJobE@Base 1:5.74.0
 _ZTIN4KDAV16DavItemsFetchJobE@Base 1:5.74.0
 _ZTIN4KDAV21DavPrincipalSearchJobE@Base 1:5.74.0
 _ZTIN4KDAV22DavCollectionDeleteJobE@Base 1:5.74.0
 _ZTIN4KDAV22DavCollectionModifyJobE@Base 1:5.74.0
 _ZTIN4KDAV22DavCollectionsFetchJobE@Base 1:5.74.0
 _ZTIN4KDAV27DavCollectionsMultiFetchJobE@Base 1:5.74.0
 _ZTIN4KDAV28DavPrincipalHomeSetsFetchJobE@Base 1:5.74.0
 _ZTIN4KDAV9EtagCacheE@Base 1:5.74.0
 _ZTSN4KDAV10DavJobBaseE@Base 1:5.74.0
 _ZTSN4KDAV15DavItemFetchJobE@Base 1:5.74.0
 _ZTSN4KDAV15DavItemsListJobE@Base 1:5.74.0
 _ZTSN4KDAV16DavItemCreateJobE@Base 1:5.74.0
 _ZTSN4KDAV16DavItemDeleteJobE@Base 1:5.74.0
 _ZTSN4KDAV16DavItemModifyJobE@Base 1:5.74.0
 _ZTSN4KDAV16DavItemsFetchJobE@Base 1:5.74.0
 _ZTSN4KDAV21DavPrincipalSearchJobE@Base 1:5.74.0
 _ZTSN4KDAV22DavCollectionDeleteJobE@Base 1:5.74.0
 _ZTSN4KDAV22DavCollectionModifyJobE@Base 1:5.74.0
 _ZTSN4KDAV22DavCollectionsFetchJobE@Base 1:5.74.0
 _ZTSN4KDAV27DavCollectionsMultiFetchJobE@Base 1:5.74.0
 _ZTSN4KDAV28DavPrincipalHomeSetsFetchJobE@Base 1:5.74.0
 _ZTSN4KDAV9EtagCacheE@Base 1:5.74.0
 _ZTVN4KDAV10DavJobBaseE@Base 1:5.74.0
 _ZTVN4KDAV15DavItemFetchJobE@Base 1:5.74.0
 _ZTVN4KDAV15DavItemsListJobE@Base 1:5.74.0
 _ZTVN4KDAV16DavItemCreateJobE@Base 1:5.74.0
 _ZTVN4KDAV16DavItemDeleteJobE@Base 1:5.74.0
 _ZTVN4KDAV16DavItemModifyJobE@Base 1:5.74.0
 _ZTVN4KDAV16DavItemsFetchJobE@Base 1:5.74.0
 _ZTVN4KDAV21DavPrincipalSearchJobE@Base 1:5.74.0
 _ZTVN4KDAV22DavCollectionDeleteJobE@Base 1:5.74.0
 _ZTVN4KDAV22DavCollectionModifyJobE@Base 1:5.74.0
 _ZTVN4KDAV22DavCollectionsFetchJobE@Base 1:5.74.0
 _ZTVN4KDAV27DavCollectionsMultiFetchJobE@Base 1:5.74.0
 _ZTVN4KDAV28DavPrincipalHomeSetsFetchJobE@Base 1:5.74.0
 _ZTVN4KDAV9EtagCacheE@Base 1:5.74.0
